; ModuleID = '14/4.c'
source_filename = "14/4.c"
target datalayout = "e-m:e-p270:32:32-p271:32:32-p272:64:64-i64:64-f80:128-n8:16:32:64-S128"
target triple = "x86_64-pc-linux-gnu"

%struct.student = type { i32, i32, i32, i32, %struct.student*, %struct.student* }

@.str = private unnamed_addr constant [3 x i8] c"%d\00", align 1
@.str.1 = private unnamed_addr constant [9 x i8] c"%d %d %d\00", align 1
@.str.2 = private unnamed_addr constant [7 x i8] c"%d %d\0A\00", align 1

; Function Attrs: noinline nounwind uwtable
define dso_local i32 @main() #0 {
  %1 = alloca i32, align 4
  %2 = alloca i32, align 4
  %3 = alloca i32, align 4
  %4 = alloca i32, align 4
  %5 = alloca i32, align 4
  %6 = alloca i32, align 4
  %7 = alloca i32, align 4
  %8 = alloca i32, align 4
  %9 = alloca i32, align 4
  %10 = alloca %struct.student*, align 8
  %11 = alloca %struct.student*, align 8
  %12 = alloca %struct.student*, align 8
  store i32 0, i32* %1, align 4
  store i32 0, i32* %4, align 4
  store i32 0, i32* %5, align 4
  store i32 0, i32* %6, align 4
  store i32 0, i32* %7, align 4
  store i32 0, i32* %8, align 4
  store i32 0, i32* %9, align 4
  %13 = call i32 (i8*, ...) @__isoc99_scanf(i8* getelementptr inbounds ([3 x i8], [3 x i8]* @.str, i64 0, i64 0), i32* %3)
  %14 = call noalias i8* @malloc(i64 100) #3
  %15 = bitcast i8* %14 to %struct.student*
  store %struct.student* %15, %struct.student** %12, align 8
  store %struct.student* %15, %struct.student** %11, align 8
  %16 = load %struct.student*, %struct.student** %11, align 8
  %17 = getelementptr inbounds %struct.student, %struct.student* %16, i32 0, i32 0
  %18 = load %struct.student*, %struct.student** %11, align 8
  %19 = getelementptr inbounds %struct.student, %struct.student* %18, i32 0, i32 1
  %20 = load %struct.student*, %struct.student** %11, align 8
  %21 = getelementptr inbounds %struct.student, %struct.student* %20, i32 0, i32 1
  %22 = call i32 (i8*, ...) @__isoc99_scanf(i8* getelementptr inbounds ([9 x i8], [9 x i8]* @.str.1, i64 0, i64 0), i32* %17, i32* %19, i32* %21)
  %23 = load %struct.student*, %struct.student** %11, align 8
  %24 = getelementptr inbounds %struct.student, %struct.student* %23, i32 0, i32 1
  %25 = load i32, i32* %24, align 4
  %26 = load %struct.student*, %struct.student** %11, align 8
  %27 = getelementptr inbounds %struct.student, %struct.student* %26, i32 0, i32 2
  %28 = load i32, i32* %27, align 8
  %29 = add nsw i32 %25, %28
  %30 = load %struct.student*, %struct.student** %11, align 8
  %31 = getelementptr inbounds %struct.student, %struct.student* %30, i32 0, i32 3
  store i32 %29, i32* %31, align 4
  %32 = load %struct.student*, %struct.student** %11, align 8
  %33 = getelementptr inbounds %struct.student, %struct.student* %32, i32 0, i32 3
  %34 = load i32, i32* %33, align 4
  store i32 %34, i32* %7, align 4
  %35 = load %struct.student*, %struct.student** %11, align 8
  %36 = getelementptr inbounds %struct.student, %struct.student* %35, i32 0, i32 0
  %37 = load i32, i32* %36, align 8
  store i32 %37, i32* %4, align 4
  store %struct.student* null, %struct.student** %10, align 8
  store i32 0, i32* %2, align 4
  br label %38

38:                                               ; preds = %133, %0
  %39 = load i32, i32* %2, align 4
  %40 = load i32, i32* %3, align 4
  %41 = sub nsw i32 %40, 2
  %42 = icmp sle i32 %39, %41
  br i1 %42, label %43, label %134

43:                                               ; preds = %38
  %44 = load i32, i32* %2, align 4
  %45 = add nsw i32 %44, 1
  store i32 %45, i32* %2, align 4
  %46 = load i32, i32* %2, align 4
  %47 = icmp eq i32 %46, 1
  br i1 %47, label %48, label %50

48:                                               ; preds = %43
  %49 = load %struct.student*, %struct.student** %11, align 8
  store %struct.student* %49, %struct.student** %10, align 8
  br label %57

50:                                               ; preds = %43
  %51 = load %struct.student*, %struct.student** %12, align 8
  %52 = load %struct.student*, %struct.student** %11, align 8
  %53 = getelementptr inbounds %struct.student, %struct.student* %52, i32 0, i32 5
  store %struct.student* %51, %struct.student** %53, align 8
  %54 = load %struct.student*, %struct.student** %11, align 8
  %55 = load %struct.student*, %struct.student** %12, align 8
  %56 = getelementptr inbounds %struct.student, %struct.student* %55, i32 0, i32 4
  store %struct.student* %54, %struct.student** %56, align 8
  br label %57

57:                                               ; preds = %50, %48
  %58 = load %struct.student*, %struct.student** %11, align 8
  store %struct.student* %58, %struct.student** %12, align 8
  %59 = call noalias i8* @malloc(i64 100) #3
  %60 = bitcast i8* %59 to %struct.student*
  store %struct.student* %60, %struct.student** %11, align 8
  %61 = load %struct.student*, %struct.student** %11, align 8
  %62 = getelementptr inbounds %struct.student, %struct.student* %61, i32 0, i32 0
  %63 = load %struct.student*, %struct.student** %11, align 8
  %64 = getelementptr inbounds %struct.student, %struct.student* %63, i32 0, i32 1
  %65 = load %struct.student*, %struct.student** %11, align 8
  %66 = getelementptr inbounds %struct.student, %struct.student* %65, i32 0, i32 2
  %67 = call i32 (i8*, ...) @__isoc99_scanf(i8* getelementptr inbounds ([9 x i8], [9 x i8]* @.str.1, i64 0, i64 0), i32* %62, i32* %64, i32* %66)
  %68 = load %struct.student*, %struct.student** %11, align 8
  %69 = getelementptr inbounds %struct.student, %struct.student* %68, i32 0, i32 1
  %70 = load i32, i32* %69, align 4
  %71 = load %struct.student*, %struct.student** %11, align 8
  %72 = getelementptr inbounds %struct.student, %struct.student* %71, i32 0, i32 2
  %73 = load i32, i32* %72, align 8
  %74 = add nsw i32 %70, %73
  %75 = load %struct.student*, %struct.student** %11, align 8
  %76 = getelementptr inbounds %struct.student, %struct.student* %75, i32 0, i32 3
  store i32 %74, i32* %76, align 4
  %77 = load %struct.student*, %struct.student** %11, align 8
  %78 = getelementptr inbounds %struct.student, %struct.student* %77, i32 0, i32 3
  %79 = load i32, i32* %78, align 4
  %80 = load i32, i32* %9, align 4
  %81 = icmp sgt i32 %79, %80
  br i1 %81, label %82, label %95

82:                                               ; preds = %57
  %83 = load %struct.student*, %struct.student** %11, align 8
  %84 = getelementptr inbounds %struct.student, %struct.student* %83, i32 0, i32 3
  %85 = load i32, i32* %84, align 4
  %86 = load i32, i32* %8, align 4
  %87 = icmp sle i32 %85, %86
  br i1 %87, label %88, label %95

88:                                               ; preds = %82
  %89 = load %struct.student*, %struct.student** %11, align 8
  %90 = getelementptr inbounds %struct.student, %struct.student* %89, i32 0, i32 3
  %91 = load i32, i32* %90, align 4
  store i32 %91, i32* %9, align 4
  %92 = load %struct.student*, %struct.student** %11, align 8
  %93 = getelementptr inbounds %struct.student, %struct.student* %92, i32 0, i32 0
  %94 = load i32, i32* %93, align 8
  store i32 %94, i32* %6, align 4
  br label %95

95:                                               ; preds = %88, %82, %57
  %96 = load %struct.student*, %struct.student** %11, align 8
  %97 = getelementptr inbounds %struct.student, %struct.student* %96, i32 0, i32 3
  %98 = load i32, i32* %97, align 4
  %99 = load i32, i32* %8, align 4
  %100 = icmp sgt i32 %98, %99
  br i1 %100, label %101, label %116

101:                                              ; preds = %95
  %102 = load %struct.student*, %struct.student** %11, align 8
  %103 = getelementptr inbounds %struct.student, %struct.student* %102, i32 0, i32 3
  %104 = load i32, i32* %103, align 4
  %105 = load i32, i32* %7, align 4
  %106 = icmp sle i32 %104, %105
  br i1 %106, label %107, label %116

107:                                              ; preds = %101
  %108 = load i32, i32* %8, align 4
  store i32 %108, i32* %9, align 4
  %109 = load i32, i32* %5, align 4
  store i32 %109, i32* %6, align 4
  %110 = load %struct.student*, %struct.student** %11, align 8
  %111 = getelementptr inbounds %struct.student, %struct.student* %110, i32 0, i32 3
  %112 = load i32, i32* %111, align 4
  store i32 %112, i32* %8, align 4
  %113 = load %struct.student*, %struct.student** %11, align 8
  %114 = getelementptr inbounds %struct.student, %struct.student* %113, i32 0, i32 0
  %115 = load i32, i32* %114, align 8
  store i32 %115, i32* %5, align 4
  br label %116

116:                                              ; preds = %107, %101, %95
  %117 = load %struct.student*, %struct.student** %11, align 8
  %118 = getelementptr inbounds %struct.student, %struct.student* %117, i32 0, i32 3
  %119 = load i32, i32* %118, align 4
  %120 = load i32, i32* %7, align 4
  %121 = icmp sgt i32 %119, %120
  br i1 %121, label %122, label %133

122:                                              ; preds = %116
  %123 = load i32, i32* %8, align 4
  store i32 %123, i32* %9, align 4
  %124 = load i32, i32* %5, align 4
  store i32 %124, i32* %6, align 4
  %125 = load i32, i32* %7, align 4
  store i32 %125, i32* %8, align 4
  %126 = load i32, i32* %4, align 4
  store i32 %126, i32* %5, align 4
  %127 = load %struct.student*, %struct.student** %11, align 8
  %128 = getelementptr inbounds %struct.student, %struct.student* %127, i32 0, i32 3
  %129 = load i32, i32* %128, align 4
  store i32 %129, i32* %7, align 4
  %130 = load %struct.student*, %struct.student** %11, align 8
  %131 = getelementptr inbounds %struct.student, %struct.student* %130, i32 0, i32 0
  %132 = load i32, i32* %131, align 8
  store i32 %132, i32* %4, align 4
  br label %133

133:                                              ; preds = %122, %116
  br label %38

134:                                              ; preds = %38
  %135 = load i32, i32* %4, align 4
  %136 = load i32, i32* %7, align 4
  %137 = call i32 (i8*, ...) @printf(i8* getelementptr inbounds ([7 x i8], [7 x i8]* @.str.2, i64 0, i64 0), i32 %135, i32 %136)
  %138 = load i32, i32* %5, align 4
  %139 = load i32, i32* %8, align 4
  %140 = call i32 (i8*, ...) @printf(i8* getelementptr inbounds ([7 x i8], [7 x i8]* @.str.2, i64 0, i64 0), i32 %138, i32 %139)
  %141 = load i32, i32* %6, align 4
  %142 = load i32, i32* %9, align 4
  %143 = call i32 (i8*, ...) @printf(i8* getelementptr inbounds ([7 x i8], [7 x i8]* @.str.2, i64 0, i64 0), i32 %141, i32 %142)
  %144 = load i32, i32* %1, align 4
  ret i32 %144
}

declare dso_local i32 @__isoc99_scanf(i8*, ...) #1

; Function Attrs: nounwind
declare dso_local noalias i8* @malloc(i64) #2

declare dso_local i32 @printf(i8*, ...) #1


!llvm.module.flags = !{!0}
!llvm.ident = !{!1}

!0 = !{i32 1, !"wchar_size", i32 4}
!1 = !{!"clang version 10.0.0-4ubuntu1 "}
